; Function Attrs: mustprogress nounwind uwtable
define dso_local void @_ZN3ozz9animation9AnimationD2Ev(ptr noundef nonnull align 8 captures(none) dereferenceable(304) %0) unnamed_addr #4 align 2 personality ptr @__gxx_personality_v0 {
  %2 = invoke noundef ptr @_ZN3ozz6memory17default_allocatorEv()
          to label %.noexc unwind label %9

.noexc:                                           ; preds = %1
  %3 = getelementptr inbounds nuw i8, ptr %0, i64 8
  %4 = load ptr, ptr %3, align 8, !tbaa !46
  %5 = load ptr, ptr %2, align 8, !tbaa !48
  %6 = getelementptr inbounds nuw i8, ptr %5, i64 24
  %7 = load ptr, ptr %6, align 8
  invoke void %7(ptr noundef nonnull align 8 dereferenceable(8) %2, ptr noundef %4)
          to label %8 unwind label %9

8:                                                ; preds = %.noexc
  store ptr null, ptr %3, align 8, !tbaa !46
  ret void

9:                                                ; preds = %.noexc, %1
  %10 = landingpad { ptr, i32 }
          catch ptr null
  %11 = extractvalue { ptr, i32 } %10, 0
  tail call void @__clang_call_terminate(ptr %11) #15
  unreachable
}